; Function Attrs: mustprogress nounwind uwtable
define hidden void @_ZN14MethodLiveness10BasicBlock8load_oneEi(ptr noundef nonnull align 8 dereferenceable(169) %0, i32 noundef %1) local_unnamed_addr #0 align 2 {
  %3 = getelementptr inbounds i8, ptr %0, i64 112
  %4 = sext i32 %1 to i64
  %5 = load ptr, ptr %3, align 8
  %6 = lshr i64 %4, 6
  %7 = getelementptr inbounds i64, ptr %5, i64 %6
  %8 = load i64, ptr %7, align 8
  %9 = and i64 %4, 63
  %10 = shl nuw i64 1, %9
  %11 = and i64 %8, %10
  %.not = icmp eq i64 %11, 0
  br i1 %.not, label %12, label %14

12:                                               ; preds = %2
  %13 = getelementptr inbounds i8, ptr %0, i64 88
  tail call void @_ZN6BitMap6at_putEmb(ptr noundef nonnull align 8 dereferenceable(16) %13, i64 noundef %4, i1 noundef zeroext true) #12
  br label %14

14:                                               ; preds = %12, %2
  ret void
}